(dp0
Vengine
p1
Vpdflatex
p2
sVpackages
p3
c__builtin__
set
p4
((lp5
Vpdflscape
p6
aVbooktabs
p7
aVcircledsteps
p8
aVframed
p9
aVupquote
p10
aValltt
p11
aVcancel
p12
aVsubcaption
p13
atp14
Rp15
sVfiles_with_guttermarks
p16
g4
((lp17
V/Users/mkh2/github/LightingPaper2020/Submissions/Submission 1/pieces/paper zip/./LightingPaper2020.tex
p18
aS'LightingPaper2020.tex'
p19
atp20
Rp21
sVsynctex
p22
I01
s.